target datalayout = "e-m:e-p270:32:32-p271:32:32-p272:64:64-i64:64-i128:128-f80:128-n8:16:32:64-S128"
target triple = "x86_64-pc-linux-gnu"

%struct.object_id = type { [32 x i8], i32 }
%struct.llist = type { ptr, ptr, i64 }
%struct.llist_item = type { ptr, %struct.object_id }

@free_nodes = internal global ptr null, align 8
@.str.19 = private unnamed_addr constant [27 x i8] c"size_t overflow: %lu * %lu\00", align 1

; Function Attrs: inlinehint nounwind uwtable
define internal void @llist_item_put(ptr noundef %0) #6 {
  %2 = alloca ptr, align 8
  store ptr %0, ptr %2, align 8, !tbaa !41
  %3 = load ptr, ptr @free_nodes, align 8, !tbaa !41
  %4 = load ptr, ptr %2, align 8, !tbaa !41
  %5 = getelementptr inbounds nuw %struct.llist_item, ptr %4, i32 0, i32 0
  store ptr %3, ptr %5, align 8, !tbaa !43
  %6 = load ptr, ptr %2, align 8, !tbaa !41
  store ptr %6, ptr @free_nodes, align 8, !tbaa !41
  ret void
}

; Function Attrs: inlinehint nounwind uwtable
define internal i64 @st_mult(i64 noundef %0, i64 noundef %1) #6 {
  %3 = alloca i64, align 8
  %4 = alloca i64, align 8
  store i64 %0, ptr %3, align 8, !tbaa !68
  store i64 %1, ptr %4, align 8, !tbaa !68
  %5 = load i64, ptr %3, align 8, !tbaa !68
  %6 = icmp ne i64 %5, 0
  br i1 %6, label %7, label %15

7:                                                ; preds = %2
  %8 = load i64, ptr %4, align 8, !tbaa !68
  %9 = load i64, ptr %3, align 8, !tbaa !68
  %10 = udiv i64 -1, %9
  %11 = icmp ugt i64 %8, %10
  br i1 %11, label %12, label %15

12:                                               ; preds = %7
  %13 = load i64, ptr %3, align 8, !tbaa !68
  %14 = load i64, ptr %4, align 8, !tbaa !68
  call void (ptr, ...) @die(ptr noundef @.str.19, i64 noundef %13, i64 noundef %14) #11
  unreachable

15:                                               ; preds = %7, %2
  %16 = load i64, ptr %3, align 8, !tbaa !68
  %17 = load i64, ptr %4, align 8, !tbaa !68
  %18 = mul i64 %16, %17
  ret i64 %18
}

; Function Attrs: inlinehint nounwind uwtable
define internal ptr @llist_item_get() #6 {
  %1 = alloca ptr, align 8
  %2 = alloca i32, align 4
  call void @llvm.lifetime.start.p0(i64 8, ptr %1) #9
  %3 = load ptr, ptr @free_nodes, align 8, !tbaa !41
  %4 = icmp ne ptr %3, null
  br i1 %4, label %5, label %10

5:                                                ; preds = %0
  %6 = load ptr, ptr @free_nodes, align 8, !tbaa !41
  store ptr %6, ptr %1, align 8, !tbaa !41
  %7 = load ptr, ptr @free_nodes, align 8, !tbaa !41
  %8 = getelementptr inbounds nuw %struct.llist_item, ptr %7, i32 0, i32 0
  %9 = load ptr, ptr %8, align 8, !tbaa !43
  store ptr %9, ptr @free_nodes, align 8, !tbaa !41
  br label %25

10:                                               ; preds = %0
  call void @llvm.lifetime.start.p0(i64 4, ptr %2) #9
  store i32 1, ptr %2, align 4, !tbaa !4
  %11 = call i64 @st_mult(i64 noundef 48, i64 noundef 512)
  %12 = call ptr @xmalloc(i64 noundef %11)
  store ptr %12, ptr %1, align 8, !tbaa !41
  br label %13

13:                                               ; preds = %21, %10
  %14 = load i32, ptr %2, align 4, !tbaa !4
  %15 = icmp slt i32 %14, 512
  br i1 %15, label %16, label %24

16:                                               ; preds = %13
  %17 = load ptr, ptr %1, align 8, !tbaa !41
  %18 = load i32, ptr %2, align 4, !tbaa !4
  %19 = sext i32 %18 to i64
  %20 = getelementptr inbounds %struct.llist_item, ptr %17, i64 %19
  call void @llist_item_put(ptr noundef %20)
  br label %21

21:                                               ; preds = %16
  %22 = load i32, ptr %2, align 4, !tbaa !4
  %23 = add nsw i32 %22, 1
  store i32 %23, ptr %2, align 4, !tbaa !4
  br label %13, !llvm.loop !99

24:                                               ; preds = %13
  call void @llvm.lifetime.end.p0(i64 4, ptr %2) #9
  br label %25

25:                                               ; preds = %24, %5
  %26 = load ptr, ptr %1, align 8, !tbaa !41
  call void @llvm.lifetime.end.p0(i64 8, ptr %1) #9
  ret ptr %26
}

; Function Attrs: inlinehint nounwind uwtable
define internal void @llist_init(ptr noundef %0) #6 {
  %2 = alloca ptr, align 8
  store ptr %0, ptr %2, align 8, !tbaa !51
  %3 = call ptr @xmalloc(i64 noundef 24)
  %4 = load ptr, ptr %2, align 8, !tbaa !51
  store ptr %3, ptr %4, align 8, !tbaa !23
  %5 = load ptr, ptr %2, align 8, !tbaa !51
  %6 = load ptr, ptr %5, align 8, !tbaa !23
  %7 = getelementptr inbounds nuw %struct.llist, ptr %6, i32 0, i32 1
  store ptr null, ptr %7, align 8, !tbaa !53
  %8 = load ptr, ptr %2, align 8, !tbaa !51
  %9 = load ptr, ptr %8, align 8, !tbaa !23
  %10 = getelementptr inbounds nuw %struct.llist, ptr %9, i32 0, i32 0
  store ptr null, ptr %10, align 8, !tbaa !42
  %11 = load ptr, ptr %2, align 8, !tbaa !51
  %12 = load ptr, ptr %11, align 8, !tbaa !23
  %13 = getelementptr inbounds nuw %struct.llist, ptr %12, i32 0, i32 2
  store i64 0, ptr %13, align 8, !tbaa !34
  ret void
}

; Function Attrs: nounwind uwtable
define internal ptr @llist_copy(ptr noundef %0) #0 {
  %2 = alloca ptr, align 8
  %3 = alloca ptr, align 8
  %4 = alloca ptr, align 8
  %5 = alloca ptr, align 8
  %6 = alloca ptr, align 8
  %7 = alloca ptr, align 8
  %8 = alloca i32, align 4
  store ptr %0, ptr %3, align 8, !tbaa !23
  call void @llvm.lifetime.start.p0(i64 8, ptr %4) #9
  call void @llvm.lifetime.start.p0(i64 8, ptr %5) #9
  call void @llvm.lifetime.start.p0(i64 8, ptr %6) #9
  call void @llvm.lifetime.start.p0(i64 8, ptr %7) #9
  call void @llist_init(ptr noundef %4)
  %9 = load ptr, ptr %3, align 8, !tbaa !23
  %10 = getelementptr inbounds nuw %struct.llist, ptr %9, i32 0, i32 2
  %11 = load i64, ptr %10, align 8, !tbaa !34
  %12 = load ptr, ptr %4, align 8, !tbaa !23
  %13 = getelementptr inbounds nuw %struct.llist, ptr %12, i32 0, i32 2
  store i64 %11, ptr %13, align 8, !tbaa !34
  %14 = icmp eq i64 %11, 0
  br i1 %14, label %15, label %17

15:                                               ; preds = %1
  %16 = load ptr, ptr %4, align 8, !tbaa !23
  store ptr %16, ptr %2, align 8
  store i32 1, ptr %8, align 4
  br label %55

17:                                               ; preds = %1
  %18 = call ptr @llist_item_get()
  %19 = load ptr, ptr %4, align 8, !tbaa !23
  %20 = getelementptr inbounds nuw %struct.llist, ptr %19, i32 0, i32 0
  store ptr %18, ptr %20, align 8, !tbaa !42
  store ptr %18, ptr %5, align 8, !tbaa !41
  %21 = load ptr, ptr %5, align 8, !tbaa !41
  %22 = getelementptr inbounds nuw %struct.llist_item, ptr %21, i32 0, i32 1
  %23 = load ptr, ptr %3, align 8, !tbaa !23
  %24 = getelementptr inbounds nuw %struct.llist, ptr %23, i32 0, i32 0
  %25 = load ptr, ptr %24, align 8, !tbaa !42
  %26 = getelementptr inbounds nuw %struct.llist_item, ptr %25, i32 0, i32 1
  call void @llvm.memcpy.p0.p0.i64(ptr align 8 %22, ptr align 8 %26, i64 36, i1 false), !tbaa.struct !105
  %27 = load ptr, ptr %3, align 8, !tbaa !23
  %28 = getelementptr inbounds nuw %struct.llist, ptr %27, i32 0, i32 0
  %29 = load ptr, ptr %28, align 8, !tbaa !42
  %30 = getelementptr inbounds nuw %struct.llist_item, ptr %29, i32 0, i32 0
  %31 = load ptr, ptr %30, align 8, !tbaa !43
  store ptr %31, ptr %6, align 8, !tbaa !41
  br label %32

32:                                               ; preds = %35, %17
  %33 = load ptr, ptr %6, align 8, !tbaa !41
  %34 = icmp ne ptr %33, null
  br i1 %34, label %35, label %48

35:                                               ; preds = %32
  %36 = load ptr, ptr %5, align 8, !tbaa !41
  store ptr %36, ptr %7, align 8, !tbaa !41
  %37 = call ptr @llist_item_get()
  store ptr %37, ptr %5, align 8, !tbaa !41
  %38 = load ptr, ptr %5, align 8, !tbaa !41
  %39 = load ptr, ptr %7, align 8, !tbaa !41
  %40 = getelementptr inbounds nuw %struct.llist_item, ptr %39, i32 0, i32 0
  store ptr %38, ptr %40, align 8, !tbaa !43
  %41 = load ptr, ptr %5, align 8, !tbaa !41
  %42 = getelementptr inbounds nuw %struct.llist_item, ptr %41, i32 0, i32 1
  %43 = load ptr, ptr %6, align 8, !tbaa !41
  %44 = getelementptr inbounds nuw %struct.llist_item, ptr %43, i32 0, i32 1
  call void @llvm.memcpy.p0.p0.i64(ptr align 8 %42, ptr align 8 %44, i64 36, i1 false), !tbaa.struct !105
  %45 = load ptr, ptr %6, align 8, !tbaa !41
  %46 = getelementptr inbounds nuw %struct.llist_item, ptr %45, i32 0, i32 0
  %47 = load ptr, ptr %46, align 8, !tbaa !43
  store ptr %47, ptr %6, align 8, !tbaa !41
  br label %32, !llvm.loop !106

48:                                               ; preds = %32
  %49 = load ptr, ptr %5, align 8, !tbaa !41
  %50 = getelementptr inbounds nuw %struct.llist_item, ptr %49, i32 0, i32 0
  store ptr null, ptr %50, align 8, !tbaa !43
  %51 = load ptr, ptr %5, align 8, !tbaa !41
  %52 = load ptr, ptr %4, align 8, !tbaa !23
  %53 = getelementptr inbounds nuw %struct.llist, ptr %52, i32 0, i32 1
  store ptr %51, ptr %53, align 8, !tbaa !53
  %54 = load ptr, ptr %4, align 8, !tbaa !23
  store ptr %54, ptr %2, align 8
  store i32 1, ptr %8, align 4
  br label %55

55:                                               ; preds = %48, %15
  call void @llvm.lifetime.end.p0(i64 8, ptr %7) #9
  call void @llvm.lifetime.end.p0(i64 8, ptr %6) #9
  call void @llvm.lifetime.end.p0(i64 8, ptr %5) #9
  call void @llvm.lifetime.end.p0(i64 8, ptr %4) #9
  %56 = load ptr, ptr %2, align 8
  ret ptr %56
}