; Function Attrs: nounwind uwtable
define internal fastcc noundef ptr @llist_copy(ptr noundef readonly captures(none) %0) unnamed_addr #0 {
  %2 = tail call ptr @xmalloc(i64 noundef 24) #14
  tail call void @llvm.memset.p0.i64(ptr noundef nonnull align 8 dereferenceable(24) %2, i8 0, i64 24, i1 false)
  %3 = getelementptr inbounds nuw i8, ptr %0, i64 16
  %4 = load i64, ptr %3, align 8, !tbaa !60
  %5 = getelementptr inbounds nuw i8, ptr %2, i64 16
  store i64 %4, ptr %5, align 8, !tbaa !60
  %6 = icmp eq i64 %4, 0
  br i1 %6, label %31, label %7

7:                                                ; preds = %1
  %8 = load ptr, ptr @free_nodes, align 8, !tbaa !27
  %.not.i = icmp eq ptr %8, null
  br i1 %.not.i, label %11, label %9

9:                                                ; preds = %7
  %10 = load ptr, ptr %8, align 8, !tbaa !56
  br label %llist_item_get.exit

11:                                               ; preds = %7
  %12 = tail call ptr @xmalloc(i64 noundef 24576) #14
  %free_nodes.promoted.i = load ptr, ptr @free_nodes, align 8, !tbaa !27
  br label %13

13:                                               ; preds = %13, %11
  %indvars.iv.i = phi i64 [ 1, %11 ], [ %indvars.iv.next.i, %13 ]
  %14 = phi ptr [ %free_nodes.promoted.i, %11 ], [ %15, %13 ]
  %15 = getelementptr inbounds nuw %struct.llist_item, ptr %12, i64 %indvars.iv.i
  store ptr %14, ptr %15, align 8, !tbaa !56
  %indvars.iv.next.i = add nuw nsw i64 %indvars.iv.i, 1
  %exitcond.not.i = icmp eq i64 %indvars.iv.next.i, 512
  br i1 %exitcond.not.i, label %llist_item_get.exit, label %13, !llvm.loop !69

llist_item_get.exit:                              ; preds = %13, %9
  %storemerge.i = phi ptr [ %10, %9 ], [ %15, %13 ]
  %.04.i = phi ptr [ %8, %9 ], [ %12, %13 ]
  store ptr %storemerge.i, ptr @free_nodes, align 8, !tbaa !27
  store ptr %.04.i, ptr %2, align 8, !tbaa !32
  %16 = getelementptr inbounds nuw i8, ptr %.04.i, i64 8
  %17 = load ptr, ptr %0, align 8, !tbaa !32
  %18 = getelementptr inbounds nuw i8, ptr %17, i64 8
  tail call void @llvm.memcpy.p0.p0.i64(ptr noundef nonnull align 8 dereferenceable(36) %16, ptr noundef nonnull align 8 dereferenceable(36) %18, i64 36, i1 false), !tbaa.struct !70
  %19 = load ptr, ptr %0, align 8, !tbaa !32
  %.01428 = load ptr, ptr %19, align 8, !tbaa !56
  %.not29 = icmp eq ptr %.01428, null
  br i1 %.not29, label %._crit_edge, label %.lr.ph

.lr.ph:                                           ; preds = %llist_item_get.exit, %llist_item_get.exit23
  %.01431 = phi ptr [ %.014, %llist_item_get.exit23 ], [ %.01428, %llist_item_get.exit ]
  %.01530 = phi ptr [ %.04.i18, %llist_item_get.exit23 ], [ %.04.i, %llist_item_get.exit ]
  %20 = load ptr, ptr @free_nodes, align 8, !tbaa !27
  %.not.i16 = icmp eq ptr %20, null
  br i1 %.not.i16, label %23, label %21

21:                                               ; preds = %.lr.ph
  %22 = load ptr, ptr %20, align 8, !tbaa !56
  br label %llist_item_get.exit23

23:                                               ; preds = %.lr.ph
  %24 = tail call ptr @xmalloc(i64 noundef 24576) #14
  %free_nodes.promoted.i19 = load ptr, ptr @free_nodes, align 8, !tbaa !27
  br label %25

25:                                               ; preds = %25, %23
  %indvars.iv.i20 = phi i64 [ 1, %23 ], [ %indvars.iv.next.i21, %25 ]
  %26 = phi ptr [ %free_nodes.promoted.i19, %23 ], [ %27, %25 ]
  %27 = getelementptr inbounds nuw %struct.llist_item, ptr %24, i64 %indvars.iv.i20
  store ptr %26, ptr %27, align 8, !tbaa !56
  %indvars.iv.next.i21 = add nuw nsw i64 %indvars.iv.i20, 1
  %exitcond.not.i22 = icmp eq i64 %indvars.iv.next.i21, 512
  br i1 %exitcond.not.i22, label %llist_item_get.exit23, label %25, !llvm.loop !69

llist_item_get.exit23:                            ; preds = %25, %21
  %storemerge.i17 = phi ptr [ %22, %21 ], [ %27, %25 ]
  %.04.i18 = phi ptr [ %20, %21 ], [ %24, %25 ]
  store ptr %storemerge.i17, ptr @free_nodes, align 8, !tbaa !27
  store ptr %.04.i18, ptr %.01530, align 8, !tbaa !56
  %28 = getelementptr inbounds nuw i8, ptr %.04.i18, i64 8
  %29 = getelementptr inbounds nuw i8, ptr %.01431, i64 8
  tail call void @llvm.memcpy.p0.p0.i64(ptr noundef nonnull align 8 dereferenceable(36) %28, ptr noundef nonnull align 8 dereferenceable(36) %29, i64 36, i1 false), !tbaa.struct !70
  %.014 = load ptr, ptr %.01431, align 8, !tbaa !56
  %.not = icmp eq ptr %.014, null
  br i1 %.not, label %._crit_edge, label %.lr.ph, !llvm.loop !73

._crit_edge:                                      ; preds = %llist_item_get.exit23, %llist_item_get.exit
  %.015.lcssa = phi ptr [ %.04.i, %llist_item_get.exit ], [ %.04.i18, %llist_item_get.exit23 ]
  store ptr null, ptr %.015.lcssa, align 8, !tbaa !56
  %30 = getelementptr inbounds nuw i8, ptr %2, i64 8
  store ptr %.015.lcssa, ptr %30, align 8, !tbaa !59
  br label %31

31:                                               ; preds = %1, %._crit_edge
  ret ptr %2
}